target datalayout = "e-m:e-p270:32:32-p271:32:32-p272:64:64-i64:64-i128:128-f80:128-n8:16:32:64-S128"
target triple = "x86_64-unknown-linux-gnu"

%"class.std::__shared_count" = type { ptr }
%"class.std::shared_ptr.8" = type { %"class.std::__shared_ptr.9" }
%"class.std::__shared_ptr.9" = type { ptr, %"class.std::__shared_count" }
%"struct.arrow::compute::internal::FixedWidthKeyEncoder" = type <{ %"struct.arrow::compute::internal::KeyEncoder", %"class.std::shared_ptr.8", i32, [4 x i8] }>
%"struct.arrow::compute::internal::KeyEncoder" = type { ptr }

; Function Attrs: mustprogress nounwind uwtable
define void @_ZN5arrow7compute8internal20FixedWidthKeyEncoder10EncodeNullEPPh(ptr noundef nonnull align 8 dereferenceable(28) %this, ptr noundef %encoded_bytes) unnamed_addr #2 align 2 {
entry:
  %this.addr = alloca ptr, align 8
  %encoded_bytes.addr = alloca ptr, align 8
  %encoded_ptr = alloca ptr, align 8
  store ptr %this, ptr %this.addr, align 8
  store ptr %encoded_bytes, ptr %encoded_bytes.addr, align 8
  %this1 = load ptr, ptr %this.addr, align 8
  %0 = load ptr, ptr %encoded_bytes.addr, align 8
  store ptr %0, ptr %encoded_ptr, align 8
  %1 = load ptr, ptr %encoded_ptr, align 8
  %2 = load ptr, ptr %1, align 8
  %incdec.ptr = getelementptr inbounds i8, ptr %2, i32 1
  store ptr %incdec.ptr, ptr %1, align 8
  store i8 1, ptr %2, align 1
  %3 = load ptr, ptr %encoded_ptr, align 8
  %4 = load ptr, ptr %3, align 8
  %byte_width_ = getelementptr inbounds %"struct.arrow::compute::internal::FixedWidthKeyEncoder", ptr %this1, i32 0, i32 2
  %5 = load i32, ptr %byte_width_, align 8
  %conv = sext i32 %5 to i64
  call void @llvm.memset.p0.i64(ptr align 1 %4, i8 0, i64 %conv, i1 false)
  %byte_width_2 = getelementptr inbounds %"struct.arrow::compute::internal::FixedWidthKeyEncoder", ptr %this1, i32 0, i32 2
  %6 = load i32, ptr %byte_width_2, align 8
  %7 = load ptr, ptr %encoded_ptr, align 8
  %8 = load ptr, ptr %7, align 8
  %idx.ext = sext i32 %6 to i64
  %add.ptr = getelementptr inbounds i8, ptr %8, i64 %idx.ext
  store ptr %add.ptr, ptr %7, align 8
  ret void
}