; Function Attrs: mustprogress nofree norecurse nosync nounwind willreturn memory(write, argmem: readwrite, inaccessiblemem: none) uwtable
define void @_ZN5arrow7compute8internal20FixedWidthKeyEncoder10EncodeNullEPPh(ptr nocapture noundef nonnull readonly align 8 dereferenceable(28) %this, ptr nocapture noundef %encoded_bytes) unnamed_addr #5 align 2 {
entry:
  %0 = load ptr, ptr %encoded_bytes, align 8
  %incdec.ptr = getelementptr inbounds i8, ptr %0, i64 1
  store ptr %incdec.ptr, ptr %encoded_bytes, align 8
  store i8 1, ptr %0, align 1
  %1 = load ptr, ptr %encoded_bytes, align 8
  %byte_width_ = getelementptr inbounds i8, ptr %this, i64 24
  %2 = load i32, ptr %byte_width_, align 8
  %conv = sext i32 %2 to i64
  tail call void @llvm.memset.p0.i64(ptr align 1 %1, i8 0, i64 %conv, i1 false)
  %3 = load i32, ptr %byte_width_, align 8
  %4 = load ptr, ptr %encoded_bytes, align 8
  %idx.ext = sext i32 %3 to i64
  %add.ptr = getelementptr inbounds i8, ptr %4, i64 %idx.ext
  store ptr %add.ptr, ptr %encoded_bytes, align 8
  ret void
}